; Function Attrs: null_pointer_is_valid sspstrong uwtable
define hidden void @register_ros_oid_dissector_handle(ptr noundef %0, ptr noundef %1, i32 noundef %2, ptr noundef %3, i1 noundef zeroext %4) local_unnamed_addr #0 {
  tail call void @dissector_add_string(ptr noundef nonnull @.str, ptr noundef %0, ptr noundef %1)
  br i1 %4, label %8, label %6

6:                                                ; preds = %5
  %7 = load ptr, ptr @ros_handle, align 8
  tail call void @register_ber_oid_dissector_handle(ptr noundef %0, ptr noundef %7, i32 noundef %2, ptr noundef %3)
  br label %8

8:                                                ; preds = %6, %5
  ret void
}